; Function Attrs: mustprogress nounwind uwtable
define hidden void @_ZN6hermes2vm16SamplingProfiler15dumpChromeTraceERN4llvh11raw_ostreamE(ptr noundef nonnull align 8 dereferenceable(256) %this, ptr noundef nonnull align 8 dereferenceable(36) %OS) local_unnamed_addr #0 align 2 {
entry:
  %serializer = alloca %"class.hermes::vm::ChromeTraceSerializer", align 8
  %ref.tmp = alloca %"class.hermes::vm::ChromeTraceFormat", align 8
  %runtimeDataLock_ = getelementptr inbounds i8, ptr %this, i64 8
  %call1.i.i.i = tail call noundef i32 @pthread_mutex_lock(ptr noundef nonnull %runtimeDataLock_) #18
  %tobool.not.i.i = icmp eq i32 %call1.i.i.i, 0
  br i1 %tobool.not.i.i, label %_ZNSt10lock_guardISt5mutexEC2ERS0_.exit, label %if.then.i.i

if.then.i.i:                                      ; preds = %entry
  tail call void @_ZSt20__throw_system_errori(i32 noundef %call1.i.i.i) #15
  unreachable

_ZNSt10lock_guardISt5mutexEC2ERS0_.exit:          ; preds = %entry
  %call = tail call noundef i64 @_ZN6hermes8oscompat10process_idEv() #18
  %conv = trunc i64 %call to i32
  %threadNames_ = getelementptr inbounds i8, ptr %this, i64 120
  %sampledStacks_ = getelementptr inbounds i8, ptr %this, i64 48
  call void @_ZN6hermes2vm17ChromeTraceFormat6createEjRKN4llvh8DenseMapImNSt7__cxx1112basic_stringIcSt11char_traitsIcESaIcEEENS2_12DenseMapInfoImEENS2_6detail12DenseMapPairImS9_EEEERKSt6vectorINS0_16SamplingProfiler10StackTraceESaISK_EE(ptr nonnull sret(%"class.hermes::vm::ChromeTraceFormat") align 8 %ref.tmp, i32 noundef %conv, ptr noundef nonnull align 8 dereferenceable(20) %threadNames_, ptr noundef nonnull align 8 dereferenceable(24) %sampledStacks_) #18
  call void @_ZN6hermes2vm21ChromeTraceSerializerC1ERKNS0_16SamplingProfilerEONS0_17ChromeTraceFormatE(ptr noundef nonnull align 8 dereferenceable(88) %serializer, ptr noundef nonnull align 8 dereferenceable(256) %this, ptr noundef nonnull align 8 dereferenceable(72) %ref.tmp) #18
  call void @_ZN6hermes2vm17ChromeTraceFormatD2Ev(ptr noundef nonnull align 8 dereferenceable(72) %ref.tmp) #18
  call void @_ZNK6hermes2vm21ChromeTraceSerializer9serializeERN4llvh11raw_ostreamE(ptr noundef nonnull align 8 dereferenceable(88) %serializer, ptr noundef nonnull align 8 dereferenceable(36) %OS) #18
  call void @_ZN6hermes2vm16SamplingProfiler5clearEv(ptr noundef nonnull align 8 dereferenceable(256) %this)
  %trace_.i = getelementptr inbounds i8, ptr %serializer, i64 8
  call void @_ZN6hermes2vm17ChromeTraceFormatD2Ev(ptr noundef nonnull align 8 dereferenceable(72) %trace_.i) #18
  %call1.i.i.i1 = call noundef i32 @pthread_mutex_unlock(ptr noundef nonnull %runtimeDataLock_) #18
  ret void
}